; Function Attrs: mustprogress nofree norecurse nosync nounwind willreturn memory(read, argmem: readwrite, inaccessiblemem: none) uwtable
define hidden void @_ZN2cv11bioinspired12RetinaFilter19_setInitPeriodCountEv(ptr noundef nonnull align 8 captures(none) dereferenceable(1217) initializes((4, 12)) %0) local_unnamed_addr #6 align 2 {
  %2 = getelementptr inbounds nuw i8, ptr %0, i64 320
  %3 = load ptr, ptr %2, align 8, !tbaa !10
  %4 = getelementptr inbounds nuw i8, ptr %3, i64 8
  %5 = load float, ptr %4, align 4, !tbaa !61
  %6 = getelementptr inbounds nuw i8, ptr %3, i64 20
  %7 = load float, ptr %6, align 4, !tbaa !61
  %8 = fadd float %5, %7
  %9 = getelementptr inbounds nuw i8, ptr %0, i64 624
  %10 = load ptr, ptr %9, align 8, !tbaa !10
  %11 = getelementptr inbounds nuw i8, ptr %10, i64 8
  %12 = load float, ptr %11, align 4, !tbaa !61
  %13 = fadd float %8, %12
  %14 = fptoui float %13 to i32
  %15 = getelementptr inbounds nuw i8, ptr %0, i64 8
  store i32 %14, ptr %15, align 8, !tbaa !60
  %16 = getelementptr inbounds nuw i8, ptr %0, i64 4
  store i32 0, ptr %16, align 4, !tbaa !59
  ret void
}